target datalayout = "e-m:e-p270:32:32-p271:32:32-p272:64:64-i64:64-i128:128-f80:128-n8:16:32:64-S128"
target triple = "x86_64-pc-linux-gnu"

%struct.Color = type { i8, i8, i8, i8 }
%struct.Vector2 = type { float, float }

; Function Attrs: nounwind uwtable
define void @DrawLineV(<2 x float> %0, <2 x float> %1, i32 %2) #0 {
  %4 = alloca %struct.Vector2, align 4
  %5 = alloca %struct.Vector2, align 4
  %6 = alloca %struct.Color, align 1
  store <2 x float> %0, ptr %4, align 4
  store <2 x float> %1, ptr %5, align 4
  store i32 %2, ptr %6, align 1
  call void @rlBegin(i32 noundef 1)
  %7 = getelementptr inbounds nuw %struct.Color, ptr %6, i32 0, i32 0
  %8 = load i8, ptr %7, align 1
  %9 = getelementptr inbounds nuw %struct.Color, ptr %6, i32 0, i32 1
  %10 = load i8, ptr %9, align 1
  %11 = getelementptr inbounds nuw %struct.Color, ptr %6, i32 0, i32 2
  %12 = load i8, ptr %11, align 1
  %13 = getelementptr inbounds nuw %struct.Color, ptr %6, i32 0, i32 3
  %14 = load i8, ptr %13, align 1
  call void @rlColor4ub(i8 noundef zeroext %8, i8 noundef zeroext %10, i8 noundef zeroext %12, i8 noundef zeroext %14)
  %15 = getelementptr inbounds nuw %struct.Vector2, ptr %4, i32 0, i32 0
  %16 = load float, ptr %15, align 4
  %17 = getelementptr inbounds nuw %struct.Vector2, ptr %4, i32 0, i32 1
  %18 = load float, ptr %17, align 4
  call void @rlVertex2f(float noundef %16, float noundef %18)
  %19 = getelementptr inbounds nuw %struct.Vector2, ptr %5, i32 0, i32 0
  %20 = load float, ptr %19, align 4
  %21 = getelementptr inbounds nuw %struct.Vector2, ptr %5, i32 0, i32 1
  %22 = load float, ptr %21, align 4
  call void @rlVertex2f(float noundef %20, float noundef %22)
  call void @rlEnd()
  ret void
}