; Function Attrs: nounwind uwtable
define void @DrawLineV(<2 x float> %0, <2 x float> %1, i32 %2) local_unnamed_addr #4 {
  %.sroa.0.0.extract.trunc = trunc i32 %2 to i8
  %.sroa.2.0.extract.shift = lshr i32 %2, 8
  %.sroa.2.0.extract.trunc = trunc i32 %.sroa.2.0.extract.shift to i8
  %.sroa.3.0.extract.shift = lshr i32 %2, 16
  %.sroa.3.0.extract.trunc = trunc i32 %.sroa.3.0.extract.shift to i8
  %.sroa.4.0.extract.shift = lshr i32 %2, 24
  %.sroa.4.0.extract.trunc = trunc nuw i32 %.sroa.4.0.extract.shift to i8
  tail call void @rlBegin(i32 noundef 1) #16
  tail call void @rlColor4ub(i8 noundef zeroext %.sroa.0.0.extract.trunc, i8 noundef zeroext %.sroa.2.0.extract.trunc, i8 noundef zeroext %.sroa.3.0.extract.trunc, i8 noundef zeroext %.sroa.4.0.extract.trunc) #16
  %.sroa.02.0.vec.extract = extractelement <2 x float> %0, i64 0
  %.sroa.02.4.vec.extract = extractelement <2 x float> %0, i64 1
  tail call void @rlVertex2f(float noundef %.sroa.02.0.vec.extract, float noundef %.sroa.02.4.vec.extract) #16
  %.sroa.01.0.vec.extract = extractelement <2 x float> %1, i64 0
  %.sroa.01.4.vec.extract = extractelement <2 x float> %1, i64 1
  tail call void @rlVertex2f(float noundef %.sroa.01.0.vec.extract, float noundef %.sroa.01.4.vec.extract) #16
  tail call void @rlEnd() #16
  ret void
}